; Function Attrs: mustprogress nounwind uwtable
define internal fastcc noundef zeroext i1 @_ZN5clang19RecursiveASTVisitorIN12_GLOBAL__N_113EHCodeVisitorEE20TraverseInitListExprEPNS_12InitListExprEPN4llvm15SmallVectorImplINS6_14PointerIntPairIPNS_4StmtELj1EbNS6_21PointerLikeTypeTraitsISA_EENS6_18PointerIntPairInfoISA_Lj1ESC_EEEEEE(ptr noundef nonnull align 1 dereferenceable(1) %0, ptr noundef %1, ptr noundef %2) unnamed_addr #0 align 2 {
  %4 = getelementptr inbounds nuw i8, ptr %1, i64 48
  %.0.copyload.i.i.i.i = load i64, ptr %4, align 8
  %5 = and i64 %.0.copyload.i.i.i.i, 4
  %.not = icmp eq i64 %5, 0
  br i1 %.not, label %12, label %6

6:                                                ; preds = %3
  %.not.i = icmp ult i64 %.0.copyload.i.i.i.i, 8
  br i1 %.not.i, label %7, label %9

7:                                                ; preds = %6
  %8 = tail call fastcc noundef zeroext i1 @_ZN5clang19RecursiveASTVisitorIN12_GLOBAL__N_113EHCodeVisitorEE28TraverseSynOrSemInitListExprEPNS_12InitListExprEPN4llvm15SmallVectorImplINS6_14PointerIntPairIPNS_4StmtELj1EbNS6_21PointerLikeTypeTraitsISA_EENS6_18PointerIntPairInfoISA_Lj1ESC_EEEEEE(ptr noundef nonnull align 1 dereferenceable(1) %0, ptr noundef nonnull %1, ptr noundef %2)
  br label %15

9:                                                ; preds = %6
  %10 = and i64 %.0.copyload.i.i.i.i, -8
  %11 = inttoptr i64 %10 to ptr
  br label %12

12:                                               ; preds = %3, %9
  %13 = phi ptr [ %11, %9 ], [ %1, %3 ]
  %14 = tail call fastcc noundef zeroext i1 @_ZN5clang19RecursiveASTVisitorIN12_GLOBAL__N_113EHCodeVisitorEE28TraverseSynOrSemInitListExprEPNS_12InitListExprEPN4llvm15SmallVectorImplINS6_14PointerIntPairIPNS_4StmtELj1EbNS6_21PointerLikeTypeTraitsISA_EENS6_18PointerIntPairInfoISA_Lj1ESC_EEEEEE(ptr noundef nonnull align 1 dereferenceable(1) %0, ptr noundef %13, ptr noundef %2)
  br label %15

15:                                               ; preds = %12, %7
  %.0 = phi i1 [ %8, %7 ], [ %14, %12 ]
  ret i1 %.0
}